; ModuleID = '44/399.c'
source_filename = "44/399.c"
target datalayout = "e-m:e-p270:32:32-p271:32:32-p272:64:64-i64:64-f80:128-n8:16:32:64-S128"
target triple = "x86_64-pc-linux-gnu"

@.str = private unnamed_addr constant [3 x i8] c"%d\00", align 1
@.str.1 = private unnamed_addr constant [4 x i8] c"%d\0A\00", align 1

; Function Attrs: noinline nounwind uwtable
define dso_local i32 @reverse(i32 %0) #0 {
  %2 = alloca i32, align 4
  %3 = alloca i32, align 4
  %4 = alloca i32, align 4
  %5 = alloca [100 x i32], align 16
  %6 = alloca i32, align 4
  %7 = alloca i32, align 4
  %8 = alloca i32, align 4
  store i32 %0, i32* %3, align 4
  store i32 0, i32* %4, align 4
  store i32 0, i32* %6, align 4
  store i32 1, i32* %8, align 4
  %9 = load i32, i32* %3, align 4
  %10 = icmp slt i32 %9, 0
  br i1 %10, label %11, label %14

11:                                               ; preds = %1
  %12 = load i32, i32* %3, align 4
  %13 = sub nsw i32 0, %12
  store i32 %13, i32* %3, align 4
  store i32 0, i32* %8, align 4
  br label %14

14:                                               ; preds = %11, %1
  br label %15

15:                                               ; preds = %14, %19
  %16 = load i32, i32* %3, align 4
  %17 = icmp slt i32 %16, 10
  br i1 %17, label %18, label %19

18:                                               ; preds = %15
  br label %29

19:                                               ; preds = %15
  %20 = load i32, i32* %3, align 4
  %21 = srem i32 %20, 10
  %22 = load i32, i32* %4, align 4
  %23 = sext i32 %22 to i64
  %24 = getelementptr inbounds [100 x i32], [100 x i32]* %5, i64 0, i64 %23
  store i32 %21, i32* %24, align 4
  %25 = load i32, i32* %3, align 4
  %26 = sdiv i32 %25, 10
  store i32 %26, i32* %3, align 4
  %27 = load i32, i32* %4, align 4
  %28 = add nsw i32 %27, 1
  store i32 %28, i32* %4, align 4
  br label %15

29:                                               ; preds = %18
  store i32 0, i32* %7, align 4
  br label %30

30:                                               ; preds = %50, %29
  %31 = load i32, i32* %7, align 4
  %32 = load i32, i32* %4, align 4
  %33 = icmp slt i32 %31, %32
  br i1 %33, label %34, label %53

34:                                               ; preds = %30
  %35 = load i32, i32* %7, align 4
  %36 = sext i32 %35 to i64
  %37 = getelementptr inbounds [100 x i32], [100 x i32]* %5, i64 0, i64 %36
  %38 = load i32, i32* %37, align 4
  %39 = sitofp i32 %38 to double
  %40 = load i32, i32* %4, align 4
  %41 = load i32, i32* %7, align 4
  %42 = sub nsw i32 %40, %41
  %43 = sitofp i32 %42 to double
  %44 = call double @pow(double 1.000000e+01, double %43) #3
  %45 = fmul double %39, %44
  %46 = load i32, i32* %6, align 4
  %47 = sitofp i32 %46 to double
  %48 = fadd double %47, %45
  %49 = fptosi double %48 to i32
  store i32 %49, i32* %6, align 4
  br label %50

50:                                               ; preds = %34
  %51 = load i32, i32* %7, align 4
  %52 = add nsw i32 %51, 1
  store i32 %52, i32* %7, align 4
  br label %30

53:                                               ; preds = %30
  %54 = load i32, i32* %3, align 4
  %55 = load i32, i32* %6, align 4
  %56 = add nsw i32 %55, %54
  store i32 %56, i32* %6, align 4
  %57 = load i32, i32* %8, align 4
  %58 = icmp eq i32 %57, 0
  br i1 %58, label %59, label %62

59:                                               ; preds = %53
  %60 = load i32, i32* %6, align 4
  %61 = sub nsw i32 0, %60
  store i32 %61, i32* %2, align 4
  br label %64

62:                                               ; preds = %53
  %63 = load i32, i32* %6, align 4
  store i32 %63, i32* %2, align 4
  br label %64

64:                                               ; preds = %62, %59
  %65 = load i32, i32* %2, align 4
  ret i32 %65
}

; Function Attrs: nounwind
declare dso_local double @pow(double, double) #1

; Function Attrs: noinline nounwind uwtable
define dso_local i32 @main() #0 {
  %1 = alloca i32, align 4
  %2 = alloca i32, align 4
  %3 = alloca i32, align 4
  %4 = alloca i32, align 4
  store i32 0, i32* %1, align 4
  store i32 0, i32* %2, align 4
  br label %5

5:                                                ; preds = %20, %0
  %6 = load i32, i32* %2, align 4
  %7 = icmp slt i32 %6, 6
  br i1 %7, label %8, label %23

8:                                                ; preds = %5
  %9 = call i32 (i8*, ...) @__isoc99_scanf(i8* getelementptr inbounds ([3 x i8], [3 x i8]* @.str, i64 0, i64 0), i32* %4)
  %10 = load i32, i32* %4, align 4
  %11 = call i32 @reverse(i32 %10)
  store i32 %11, i32* %3, align 4
  %12 = load i32, i32* %2, align 4
  %13 = icmp slt i32 %12, 5
  br i1 %13, label %14, label %17

14:                                               ; preds = %8
  %15 = load i32, i32* %3, align 4
  %16 = call i32 (i8*, ...) @printf(i8* getelementptr inbounds ([4 x i8], [4 x i8]* @.str.1, i64 0, i64 0), i32 %15)
  br label %20

17:                                               ; preds = %8
  %18 = load i32, i32* %3, align 4
  %19 = call i32 (i8*, ...) @printf(i8* getelementptr inbounds ([3 x i8], [3 x i8]* @.str, i64 0, i64 0), i32 %18)
  br label %20

20:                                               ; preds = %17, %14
  %21 = load i32, i32* %2, align 4
  %22 = add nsw i32 %21, 1
  store i32 %22, i32* %2, align 4
  br label %5

23:                                               ; preds = %5
  ret i32 0
}

declare dso_local i32 @__isoc99_scanf(i8*, ...) #2

declare dso_local i32 @printf(i8*, ...) #2


!llvm.module.flags = !{!0}
!llvm.ident = !{!1}

!0 = !{i32 1, !"wchar_size", i32 4}
!1 = !{!"clang version 10.0.0-4ubuntu1 "}
